target datalayout = "e-m:e-p270:32:32-p271:32:32-p272:64:64-i64:64-i128:128-f80:128-n8:16:32:64-S128"
target triple = "x86_64-pc-linux-gnu"

%"class.std::__cxx11::basic_string" = type { %"struct.std::__cxx11::basic_string<char>::_Alloc_hider", i64, %union.anon }
%"struct.std::__cxx11::basic_string<char>::_Alloc_hider" = type { ptr }
%union.anon = type { i64, [8 x i8] }
%"class.std::allocator" = type { i8 }
%"class.Ipopt::LibraryLoader" = type { %"class.Ipopt::ReferencedObject.base", %"class.std::__cxx11::basic_string", ptr }
%"class.Ipopt::ReferencedObject.base" = type <{ ptr, i32 }>

@.str = private unnamed_addr constant [41 x i8] c"No library name given (libname is empty)\00", align 1
@.str.1 = private unnamed_addr constant [27 x i8] c"Common/IpLibraryLoader.cpp\00", align 1
@_ZTIN5Ipopt23DYNAMIC_LIBRARY_FAILUREE = linkonce_odr constant { ptr, ptr, ptr } { ptr getelementptr inbounds (ptr, ptr @_ZTVN10__cxxabiv120__si_class_type_infoE, i64 2), ptr @_ZTSN5Ipopt23DYNAMIC_LIBRARY_FAILUREE, ptr @_ZTIN5Ipopt14IpoptExceptionE }, comdat, align 8

; Function Attrs: mustprogress uwtable
define void @_ZN5Ipopt13LibraryLoader11loadLibraryEv(ptr noundef nonnull align 8 dereferenceable(56) %0) #0 align 2 personality ptr @__gxx_personality_v0 {
  %2 = alloca ptr, align 8
  %3 = alloca %"class.std::__cxx11::basic_string", align 8
  %4 = alloca %"class.std::allocator", align 1
  %5 = alloca ptr, align 8
  %6 = alloca i32, align 4
  %7 = alloca %"class.std::__cxx11::basic_string", align 8
  %8 = alloca %"class.std::allocator", align 1
  %9 = alloca i1, align 1
  %10 = alloca %"class.std::__cxx11::basic_string", align 8
  %11 = alloca %"class.std::allocator", align 1
  %12 = alloca %"class.std::__cxx11::basic_string", align 8
  %13 = alloca %"class.std::allocator", align 1
  %14 = alloca i1, align 1
  store ptr %0, ptr %2, align 8
  %15 = load ptr, ptr %2, align 8
  %16 = getelementptr inbounds %"class.Ipopt::LibraryLoader", ptr %15, i32 0, i32 1
  %17 = call noundef zeroext i1 @_ZNKSt7__cxx1112basic_stringIcSt11char_traitsIcESaIcEE5emptyEv(ptr noundef nonnull align 8 dereferenceable(32) %16) #10
  br i1 %17, label %18, label %40

18:                                               ; preds = %1
  store i1 true, ptr %9, align 1
  %19 = call ptr @__cxa_allocate_exception(i64 112) #10
  call void @_ZNSaIcEC1Ev(ptr noundef nonnull align 1 dereferenceable(1) %4) #10
  invoke void @_ZNSt7__cxx1112basic_stringIcSt11char_traitsIcESaIcEEC2IS3_EEPKcRKS3_(ptr noundef nonnull align 8 dereferenceable(32) %3, ptr noundef @.str, ptr noundef nonnull align 1 dereferenceable(1) %4)
          to label %20 unwind label %23

20:                                               ; preds = %18
  call void @_ZNSaIcEC1Ev(ptr noundef nonnull align 1 dereferenceable(1) %8) #10
  invoke void @_ZNSt7__cxx1112basic_stringIcSt11char_traitsIcESaIcEEC2IS3_EEPKcRKS3_(ptr noundef nonnull align 8 dereferenceable(32) %7, ptr noundef @.str.1, ptr noundef nonnull align 1 dereferenceable(1) %8)
          to label %21 unwind label %27

21:                                               ; preds = %20
  invoke void @_ZN5Ipopt23DYNAMIC_LIBRARY_FAILUREC2ERKNSt7__cxx1112basic_stringIcSt11char_traitsIcESaIcEEES8_i(ptr noundef nonnull align 8 dereferenceable(112) %19, ptr noundef nonnull align 8 dereferenceable(32) %3, ptr noundef nonnull align 8 dereferenceable(32) %7, i32 noundef 49)
          to label %22 unwind label %31

22:                                               ; preds = %21
  store i1 false, ptr %9, align 1
  invoke void @__cxa_throw(ptr %19, ptr @_ZTIN5Ipopt23DYNAMIC_LIBRARY_FAILUREE, ptr @_ZN5Ipopt23DYNAMIC_LIBRARY_FAILURED2Ev) #11
          to label %77 unwind label %31

23:                                               ; preds = %18
  %24 = landingpad { ptr, i32 }
          cleanup
  %25 = extractvalue { ptr, i32 } %24, 0
  store ptr %25, ptr %5, align 8
  %26 = extractvalue { ptr, i32 } %24, 1
  store i32 %26, ptr %6, align 4
  br label %36

27:                                               ; preds = %20
  %28 = landingpad { ptr, i32 }
          cleanup
  %29 = extractvalue { ptr, i32 } %28, 0
  store ptr %29, ptr %5, align 8
  %30 = extractvalue { ptr, i32 } %28, 1
  store i32 %30, ptr %6, align 4
  br label %35

31:                                               ; preds = %22, %21
  %32 = landingpad { ptr, i32 }
          cleanup
  %33 = extractvalue { ptr, i32 } %32, 0
  store ptr %33, ptr %5, align 8
  %34 = extractvalue { ptr, i32 } %32, 1
  store i32 %34, ptr %6, align 4
  call void @_ZNSt7__cxx1112basic_stringIcSt11char_traitsIcESaIcEED1Ev(ptr noundef nonnull align 8 dereferenceable(32) %7) #10
  br label %35

35:                                               ; preds = %31, %27
  call void @_ZNSaIcED1Ev(ptr noundef nonnull align 1 dereferenceable(1) %8) #10
  call void @_ZNSt7__cxx1112basic_stringIcSt11char_traitsIcESaIcEED1Ev(ptr noundef nonnull align 8 dereferenceable(32) %3) #10
  br label %36

36:                                               ; preds = %35, %23
  call void @_ZNSaIcED1Ev(ptr noundef nonnull align 1 dereferenceable(1) %4) #10
  %37 = load i1, ptr %9, align 1
  br i1 %37, label %38, label %39

38:                                               ; preds = %36
  call void @__cxa_free_exception(ptr %19) #10
  br label %39

39:                                               ; preds = %38, %36
  br label %72

40:                                               ; preds = %1
  %41 = getelementptr inbounds %"class.Ipopt::LibraryLoader", ptr %15, i32 0, i32 1
  %42 = call noundef ptr @_ZNKSt7__cxx1112basic_stringIcSt11char_traitsIcESaIcEE5c_strEv(ptr noundef nonnull align 8 dereferenceable(32) %41) #10
  %43 = call ptr @dlopen(ptr noundef %42, i32 noundef 2) #10
  %44 = getelementptr inbounds %"class.Ipopt::LibraryLoader", ptr %15, i32 0, i32 2
  store ptr %43, ptr %44, align 8
  %45 = getelementptr inbounds %"class.Ipopt::LibraryLoader", ptr %15, i32 0, i32 2
  %46 = load ptr, ptr %45, align 8
  %47 = icmp eq ptr %46, null
  br i1 %47, label %48, label %71

48:                                               ; preds = %40
  store i1 true, ptr %14, align 1
  %49 = call ptr @__cxa_allocate_exception(i64 112) #10
  %50 = call ptr @dlerror() #10
  call void @_ZNSaIcEC1Ev(ptr noundef nonnull align 1 dereferenceable(1) %11) #10
  invoke void @_ZNSt7__cxx1112basic_stringIcSt11char_traitsIcESaIcEEC2IS3_EEPKcRKS3_(ptr noundef nonnull align 8 dereferenceable(32) %10, ptr noundef %50, ptr noundef nonnull align 1 dereferenceable(1) %11)
          to label %51 unwind label %54

51:                                               ; preds = %48
  call void @_ZNSaIcEC1Ev(ptr noundef nonnull align 1 dereferenceable(1) %13) #10
  invoke void @_ZNSt7__cxx1112basic_stringIcSt11char_traitsIcESaIcEEC2IS3_EEPKcRKS3_(ptr noundef nonnull align 8 dereferenceable(32) %12, ptr noundef @.str.1, ptr noundef nonnull align 1 dereferenceable(1) %13)
          to label %52 unwind label %58

52:                                               ; preds = %51
  invoke void @_ZN5Ipopt23DYNAMIC_LIBRARY_FAILUREC2ERKNSt7__cxx1112basic_stringIcSt11char_traitsIcESaIcEEES8_i(ptr noundef nonnull align 8 dereferenceable(112) %49, ptr noundef nonnull align 8 dereferenceable(32) %10, ptr noundef nonnull align 8 dereferenceable(32) %12, i32 noundef 67)
          to label %53 unwind label %62

53:                                               ; preds = %52
  store i1 false, ptr %14, align 1
  invoke void @__cxa_throw(ptr %49, ptr @_ZTIN5Ipopt23DYNAMIC_LIBRARY_FAILUREE, ptr @_ZN5Ipopt23DYNAMIC_LIBRARY_FAILURED2Ev) #11
          to label %77 unwind label %62

54:                                               ; preds = %48
  %55 = landingpad { ptr, i32 }
          cleanup
  %56 = extractvalue { ptr, i32 } %55, 0
  store ptr %56, ptr %5, align 8
  %57 = extractvalue { ptr, i32 } %55, 1
  store i32 %57, ptr %6, align 4
  br label %67

58:                                               ; preds = %51
  %59 = landingpad { ptr, i32 }
          cleanup
  %60 = extractvalue { ptr, i32 } %59, 0
  store ptr %60, ptr %5, align 8
  %61 = extractvalue { ptr, i32 } %59, 1
  store i32 %61, ptr %6, align 4
  br label %66

62:                                               ; preds = %53, %52
  %63 = landingpad { ptr, i32 }
          cleanup
  %64 = extractvalue { ptr, i32 } %63, 0
  store ptr %64, ptr %5, align 8
  %65 = extractvalue { ptr, i32 } %63, 1
  store i32 %65, ptr %6, align 4
  call void @_ZNSt7__cxx1112basic_stringIcSt11char_traitsIcESaIcEED1Ev(ptr noundef nonnull align 8 dereferenceable(32) %12) #10
  br label %66

66:                                               ; preds = %62, %58
  call void @_ZNSaIcED1Ev(ptr noundef nonnull align 1 dereferenceable(1) %13) #10
  call void @_ZNSt7__cxx1112basic_stringIcSt11char_traitsIcESaIcEED1Ev(ptr noundef nonnull align 8 dereferenceable(32) %10) #10
  br label %67

67:                                               ; preds = %66, %54
  call void @_ZNSaIcED1Ev(ptr noundef nonnull align 1 dereferenceable(1) %11) #10
  %68 = load i1, ptr %14, align 1
  br i1 %68, label %69, label %70

69:                                               ; preds = %67
  call void @__cxa_free_exception(ptr %49) #10
  br label %70

70:                                               ; preds = %69, %67
  br label %72

71:                                               ; preds = %40
  ret void

72:                                               ; preds = %70, %39
  %73 = load ptr, ptr %5, align 8
  %74 = load i32, ptr %6, align 4
  %75 = insertvalue { ptr, i32 } poison, ptr %73, 0
  %76 = insertvalue { ptr, i32 } %75, i32 %74, 1
  resume { ptr, i32 } %76

77:                                               ; preds = %53, %22
  unreachable
}