; Function Attrs: mustprogress uwtable
define void @_ZN5Ipopt13LibraryLoader11loadLibraryEv(ptr noundef nonnull align 8 dereferenceable(56) %0) local_unnamed_addr #0 align 2 personality ptr @__gxx_personality_v0 {
  %2 = alloca %"class.std::__cxx11::basic_string", align 8
  %3 = alloca %"class.std::allocator", align 1
  %4 = alloca %"class.std::__cxx11::basic_string", align 8
  %5 = alloca %"class.std::allocator", align 1
  %6 = alloca %"class.std::__cxx11::basic_string", align 8
  %7 = alloca %"class.std::allocator", align 1
  %8 = alloca %"class.std::__cxx11::basic_string", align 8
  %9 = alloca %"class.std::allocator", align 1
  %10 = getelementptr inbounds i8, ptr %0, i64 16
  %11 = tail call noundef zeroext i1 @_ZNKSt7__cxx1112basic_stringIcSt11char_traitsIcESaIcEE5emptyEv(ptr noundef nonnull align 8 dereferenceable(32) %10) #11
  br i1 %11, label %12, label %23

12:                                               ; preds = %1
  %13 = tail call ptr @__cxa_allocate_exception(i64 112) #11
  call void @_ZNSaIcEC1Ev(ptr noundef nonnull align 1 dereferenceable(1) %3) #11
  invoke void @_ZNSt7__cxx1112basic_stringIcSt11char_traitsIcESaIcEEC2IS3_EEPKcRKS3_(ptr noundef nonnull align 8 dereferenceable(32) %2, ptr noundef nonnull @.str, ptr noundef nonnull align 1 dereferenceable(1) %3)
          to label %14 unwind label %.thread

14:                                               ; preds = %12
  call void @_ZNSaIcEC1Ev(ptr noundef nonnull align 1 dereferenceable(1) %5) #11
  invoke void @_ZNSt7__cxx1112basic_stringIcSt11char_traitsIcESaIcEEC2IS3_EEPKcRKS3_(ptr noundef nonnull align 8 dereferenceable(32) %4, ptr noundef nonnull @.str.1, ptr noundef nonnull align 1 dereferenceable(1) %5)
          to label %15 unwind label %18

15:                                               ; preds = %14
  invoke void @_ZN5Ipopt23DYNAMIC_LIBRARY_FAILUREC2ERKNSt7__cxx1112basic_stringIcSt11char_traitsIcESaIcEEES8_i(ptr noundef nonnull align 8 dereferenceable(112) %13, ptr noundef nonnull align 8 dereferenceable(32) %2, ptr noundef nonnull align 8 dereferenceable(32) %4, i32 noundef 49)
          to label %16 unwind label %20

16:                                               ; preds = %15
  invoke void @__cxa_throw(ptr nonnull %13, ptr nonnull @_ZTIN5Ipopt23DYNAMIC_LIBRARY_FAILUREE, ptr nonnull @_ZN5Ipopt23DYNAMIC_LIBRARY_FAILURED2Ev) #12
          to label %42 unwind label %20

.thread:                                          ; preds = %12
  %17 = landingpad { ptr, i32 }
          cleanup
  br label %.sink.split.sink.split

18:                                               ; preds = %14
  %19 = landingpad { ptr, i32 }
          cleanup
  br label %22

20:                                               ; preds = %16, %15
  %.04 = phi i1 [ false, %16 ], [ true, %15 ]
  %21 = landingpad { ptr, i32 }
          cleanup
  call void @_ZNSt7__cxx1112basic_stringIcSt11char_traitsIcESaIcEED1Ev(ptr noundef nonnull align 8 dereferenceable(32) %4) #11
  br label %22

22:                                               ; preds = %18, %20
  %.pn17 = phi { ptr, i32 } [ %21, %20 ], [ %19, %18 ]
  %.15 = phi i1 [ %.04, %20 ], [ true, %18 ]
  call void @_ZNSaIcED1Ev(ptr noundef nonnull align 1 dereferenceable(1) %5) #11
  call void @_ZNSt7__cxx1112basic_stringIcSt11char_traitsIcESaIcEED1Ev(ptr noundef nonnull align 8 dereferenceable(32) %2) #11
  call void @_ZNSaIcED1Ev(ptr noundef nonnull align 1 dereferenceable(1) %3) #11
  br i1 %.15, label %.sink.split, label %41

23:                                               ; preds = %1
  %24 = tail call noundef ptr @_ZNKSt7__cxx1112basic_stringIcSt11char_traitsIcESaIcEE5c_strEv(ptr noundef nonnull align 8 dereferenceable(32) %10) #11
  %25 = tail call ptr @dlopen(ptr noundef %24, i32 noundef 2) #11
  %26 = getelementptr inbounds i8, ptr %0, i64 48
  store ptr %25, ptr %26, align 8
  %27 = icmp eq ptr %25, null
  br i1 %27, label %28, label %40

28:                                               ; preds = %23
  %29 = tail call ptr @__cxa_allocate_exception(i64 112) #11
  %30 = tail call ptr @dlerror() #11
  call void @_ZNSaIcEC1Ev(ptr noundef nonnull align 1 dereferenceable(1) %7) #11
  invoke void @_ZNSt7__cxx1112basic_stringIcSt11char_traitsIcESaIcEEC2IS3_EEPKcRKS3_(ptr noundef nonnull align 8 dereferenceable(32) %6, ptr noundef %30, ptr noundef nonnull align 1 dereferenceable(1) %7)
          to label %31 unwind label %.thread24

31:                                               ; preds = %28
  call void @_ZNSaIcEC1Ev(ptr noundef nonnull align 1 dereferenceable(1) %9) #11
  invoke void @_ZNSt7__cxx1112basic_stringIcSt11char_traitsIcESaIcEEC2IS3_EEPKcRKS3_(ptr noundef nonnull align 8 dereferenceable(32) %8, ptr noundef nonnull @.str.1, ptr noundef nonnull align 1 dereferenceable(1) %9)
          to label %32 unwind label %35

32:                                               ; preds = %31
  invoke void @_ZN5Ipopt23DYNAMIC_LIBRARY_FAILUREC2ERKNSt7__cxx1112basic_stringIcSt11char_traitsIcESaIcEEES8_i(ptr noundef nonnull align 8 dereferenceable(112) %29, ptr noundef nonnull align 8 dereferenceable(32) %6, ptr noundef nonnull align 8 dereferenceable(32) %8, i32 noundef 67)
          to label %33 unwind label %37

33:                                               ; preds = %32
  invoke void @__cxa_throw(ptr nonnull %29, ptr nonnull @_ZTIN5Ipopt23DYNAMIC_LIBRARY_FAILUREE, ptr nonnull @_ZN5Ipopt23DYNAMIC_LIBRARY_FAILURED2Ev) #12
          to label %42 unwind label %37

.thread24:                                        ; preds = %28
  %34 = landingpad { ptr, i32 }
          cleanup
  br label %.sink.split.sink.split

35:                                               ; preds = %31
  %36 = landingpad { ptr, i32 }
          cleanup
  br label %39

37:                                               ; preds = %33, %32
  %.0 = phi i1 [ false, %33 ], [ true, %32 ]
  %38 = landingpad { ptr, i32 }
          cleanup
  call void @_ZNSt7__cxx1112basic_stringIcSt11char_traitsIcESaIcEED1Ev(ptr noundef nonnull align 8 dereferenceable(32) %8) #11
  br label %39

39:                                               ; preds = %35, %37
  %.pn = phi { ptr, i32 } [ %38, %37 ], [ %36, %35 ]
  %.1 = phi i1 [ %.0, %37 ], [ true, %35 ]
  call void @_ZNSaIcED1Ev(ptr noundef nonnull align 1 dereferenceable(1) %9) #11
  call void @_ZNSt7__cxx1112basic_stringIcSt11char_traitsIcESaIcEED1Ev(ptr noundef nonnull align 8 dereferenceable(32) %6) #11
  call void @_ZNSaIcED1Ev(ptr noundef nonnull align 1 dereferenceable(1) %7) #11
  br i1 %.1, label %.sink.split, label %41

40:                                               ; preds = %23
  ret void

.sink.split.sink.split:                           ; preds = %.thread, %.thread24
  %.sink28 = phi ptr [ %7, %.thread24 ], [ %3, %.thread ]
  %.sink.ph = phi ptr [ %29, %.thread24 ], [ %13, %.thread ]
  %.pn17.pn.pn.ph.ph = phi { ptr, i32 } [ %34, %.thread24 ], [ %17, %.thread ]
  call void @_ZNSaIcED1Ev(ptr noundef nonnull align 1 dereferenceable(1) %.sink28) #11
  br label %.sink.split

.sink.split:                                      ; preds = %.sink.split.sink.split, %39, %22
  %.sink = phi ptr [ %13, %22 ], [ %29, %39 ], [ %.sink.ph, %.sink.split.sink.split ]
  %.pn17.pn.pn.ph = phi { ptr, i32 } [ %.pn17, %22 ], [ %.pn, %39 ], [ %.pn17.pn.pn.ph.ph, %.sink.split.sink.split ]
  call void @__cxa_free_exception(ptr %.sink) #11
  br label %41

41:                                               ; preds = %.sink.split, %39, %22
  %.pn17.pn.pn = phi { ptr, i32 } [ %.pn17, %22 ], [ %.pn, %39 ], [ %.pn17.pn.pn.ph, %.sink.split ]
  resume { ptr, i32 } %.pn17.pn.pn

42:                                               ; preds = %33, %16
  unreachable
}